target datalayout = "e-m:e-p270:32:32-p271:32:32-p272:64:64-i64:64-i128:128-f80:128-n8:16:32:64-S128"
target triple = "x86_64-unknown-linux-gnu"

%"class.QuantLib::EndCriteria" = type { i64, i64, double, double, double }

; Function Attrs: mustprogress nounwind uwtable
define noundef zeroext i1 @_ZNK8QuantLib11EndCriteria28checkStationaryFunctionValueEddRmRNS0_4TypeE(ptr noundef nonnull align 8 dereferenceable(40) %this, double noundef %fxOld, double noundef %fxNew, ptr noundef nonnull align 8 dereferenceable(8) %statStateIterations, ptr noundef nonnull align 4 dereferenceable(4) %ecType) #4 align 2 {
entry:
  %retval = alloca i1, align 1
  %this.addr = alloca ptr, align 8
  %fxOld.addr = alloca double, align 8
  %fxNew.addr = alloca double, align 8
  %statStateIterations.addr = alloca ptr, align 8
  %ecType.addr = alloca ptr, align 8
  store ptr %this, ptr %this.addr, align 8, !tbaa !3
  store double %fxOld, ptr %fxOld.addr, align 8, !tbaa !9
  store double %fxNew, ptr %fxNew.addr, align 8, !tbaa !9
  store ptr %statStateIterations, ptr %statStateIterations.addr, align 8, !tbaa !3
  store ptr %ecType, ptr %ecType.addr, align 8, !tbaa !3
  %this1 = load ptr, ptr %this.addr, align 8
  %0 = load double, ptr %fxNew.addr, align 8, !tbaa !9
  %1 = load double, ptr %fxOld.addr, align 8, !tbaa !9
  %sub = fsub double %0, %1
  %2 = call double @llvm.fabs.f64(double %sub)
  %functionEpsilon_ = getelementptr inbounds nuw %"class.QuantLib::EndCriteria", ptr %this1, i32 0, i32 3
  %3 = load double, ptr %functionEpsilon_, align 8, !tbaa !15
  %cmp = fcmp oge double %2, %3
  br i1 %cmp, label %if.then, label %if.end

if.then:                                          ; preds = %entry
  %4 = load ptr, ptr %statStateIterations.addr, align 8, !tbaa !3
  store i64 0, ptr %4, align 8, !tbaa !7
  store i1 false, ptr %retval, align 1
  br label %return

if.end:                                           ; preds = %entry
  %5 = load ptr, ptr %statStateIterations.addr, align 8, !tbaa !3
  %6 = load i64, ptr %5, align 8, !tbaa !7
  %inc = add i64 %6, 1
  store i64 %inc, ptr %5, align 8, !tbaa !7
  %7 = load ptr, ptr %statStateIterations.addr, align 8, !tbaa !3
  %8 = load i64, ptr %7, align 8, !tbaa !7
  %maxStationaryStateIterations_ = getelementptr inbounds nuw %"class.QuantLib::EndCriteria", ptr %this1, i32 0, i32 1
  %9 = load i64, ptr %maxStationaryStateIterations_, align 8, !tbaa !13
  %cmp2 = icmp ule i64 %8, %9
  br i1 %cmp2, label %if.then3, label %if.end4

if.then3:                                         ; preds = %if.end
  store i1 false, ptr %retval, align 1
  br label %return

if.end4:                                          ; preds = %if.end
  %10 = load ptr, ptr %ecType.addr, align 8, !tbaa !3
  store i32 3, ptr %10, align 4, !tbaa !19
  store i1 true, ptr %retval, align 1
  br label %return

return:                                           ; preds = %if.end4, %if.then3, %if.then
  %11 = load i1, ptr %retval, align 1
  ret i1 %11
}