; Function Attrs: mustprogress nofree norecurse nosync nounwind willreturn memory(argmem: readwrite) uwtable
define noundef zeroext i1 @_ZNK8QuantLib11EndCriteria28checkStationaryFunctionValueEddRmRNS0_4TypeE(ptr nocapture noundef nonnull readonly align 8 dereferenceable(40) %this, double noundef %fxOld, double noundef %fxNew, ptr nocapture noundef nonnull align 8 dereferenceable(8) %statStateIterations, ptr nocapture noundef nonnull writeonly align 4 dereferenceable(4) %ecType) local_unnamed_addr #6 align 2 {
entry:
  %sub = fsub double %fxNew, %fxOld
  %0 = tail call double @llvm.fabs.f64(double %sub)
  %functionEpsilon_ = getelementptr inbounds nuw i8, ptr %this, i64 24
  %1 = load double, ptr %functionEpsilon_, align 8, !tbaa !11
  %cmp = fcmp ult double %0, %1
  br i1 %cmp, label %if.end, label %if.then

if.then:                                          ; preds = %entry
  store i64 0, ptr %statStateIterations, align 8, !tbaa !20
  br label %return

if.end:                                           ; preds = %entry
  %2 = load i64, ptr %statStateIterations, align 8, !tbaa !20
  %inc = add i64 %2, 1
  store i64 %inc, ptr %statStateIterations, align 8, !tbaa !20
  %maxStationaryStateIterations_ = getelementptr inbounds nuw i8, ptr %this, i64 8
  %3 = load i64, ptr %maxStationaryStateIterations_, align 8, !tbaa !9
  %cmp2.not = icmp ugt i64 %inc, %3
  br i1 %cmp2.not, label %if.end4, label %return

if.end4:                                          ; preds = %if.end
  store i32 3, ptr %ecType, align 4, !tbaa !25
  br label %return

return:                                           ; preds = %if.end, %if.end4, %if.then
  %retval.0 = phi i1 [ false, %if.then ], [ true, %if.end4 ], [ false, %if.end ]
  ret i1 %retval.0
}